target datalayout = "e-m:e-p270:32:32-p271:32:32-p272:64:64-i64:64-i128:128-f80:128-n8:16:32:64-S128"
target triple = "x86_64-pc-linux-gnu"

%struct.H5T_t = type { %struct.H5O_shared_t, ptr, %struct.H5O_loc_t, %struct.H5G_name_t, ptr }
%struct.H5O_shared_t = type { i32, ptr, i32, %union.anon }
%union.anon = type { %struct.H5O_mesg_loc_t }
%struct.H5O_mesg_loc_t = type { i32, i64 }
%struct.H5O_loc_t = type { ptr, i64, i8 }
%struct.H5G_name_t = type { ptr, ptr, i32 }
%struct.H5T_shared_t = type { i64, i32, i32, i64, i32, i8, ptr, ptr, %union.anon.0 }
%union.anon.0 = type { %struct.H5T_array_t }
%struct.H5T_array_t = type { i64, i32, [32 x i64] }
%struct.H5T_atomic_t = type { i32, i64, i64, i32, i32, %union.anon.1 }
%union.anon.1 = type { %struct.anon.2 }
%struct.anon.2 = type { i64, i64, i64, i64, i64, i64, i32, i32 }
%struct.H5T_compnd_t = type { i32, i32, i32, i8, ptr, i64 }
%struct.H5T_cmemb_t = type { ptr, i64, i64, ptr }
%struct.H5T_enum_t = type { i32, i32, i32, ptr, ptr }

@.str = private unnamed_addr constant [102 x i8] c"generated/home/dtcxzyw/WorkSpace/Projects/compilers/llvm-opt-benchmark/bench/hdf5/hdf5/src/H5Torder.c\00", align 1
@H5E_CANTSET_g = external global i64, align 8
@H5E_DATATYPE_g = external global i64, align 8
@.str.5 = private unnamed_addr constant [52 x i8] c"can't get number of members from compound data type\00", align 1
@H5E_CANTGET_g = external global i64, align 8
@H5E_BADVALUE_g = external global i64, align 8
@__func__.H5T__set_order = private unnamed_addr constant [15 x i8] c"H5T__set_order\00", align 1
@.str.11 = private unnamed_addr constant [53 x i8] c"operation not allowed after enum members are defined\00", align 1
@.str.12 = private unnamed_addr constant [28 x i8] c"illegal byte order for type\00", align 1
@H5E_UNINITIALIZED_g = external global i64, align 8
@.str.13 = private unnamed_addr constant [39 x i8] c"no member is in the compound data type\00", align 1
@.str.14 = private unnamed_addr constant [36 x i8] c"can't set order for compound member\00", align 1

; Function Attrs: nounwind uwtable
define internal i32 @H5T__set_order(ptr noundef %0, i32 noundef %1) #0 {
  %3 = alloca ptr, align 8
  %4 = alloca i32, align 4
  %5 = alloca i32, align 4
  %6 = alloca i8, align 1
  %7 = alloca i32, align 4
  %8 = alloca i32, align 4
  store ptr %0, ptr %3, align 8
  store i32 %1, ptr %4, align 4
  store i32 0, ptr %5, align 4
  store i8 0, ptr %6, align 1
  %9 = load ptr, ptr %3, align 8
  %10 = getelementptr inbounds %struct.H5T_t, ptr %9, i32 0, i32 1
  %11 = load ptr, ptr %10, align 8
  %12 = getelementptr inbounds %struct.H5T_shared_t, ptr %11, i32 0, i32 2
  %13 = load i32, ptr %12, align 4
  %14 = icmp eq i32 8, %13
  br i1 %14, label %15, label %38

15:                                               ; preds = %2
  %16 = load ptr, ptr %3, align 8
  %17 = getelementptr inbounds %struct.H5T_t, ptr %16, i32 0, i32 1
  %18 = load ptr, ptr %17, align 8
  %19 = getelementptr inbounds %struct.H5T_shared_t, ptr %18, i32 0, i32 8
  %20 = getelementptr inbounds %struct.H5T_enum_t, ptr %19, i32 0, i32 1
  %21 = load i32, ptr %20, align 4
  %22 = icmp ugt i32 %21, 0
  br i1 %22, label %23, label %38

23:                                               ; preds = %15
  br label %24

24:                                               ; preds = %23
  br label %25

25:                                               ; preds = %24
  br label %26

26:                                               ; preds = %25
  %27 = load i64, ptr @H5E_DATATYPE_g, align 8
  %28 = load i64, ptr @H5E_CANTSET_g, align 8
  %29 = call i32 (ptr, ptr, i32, i64, i64, ptr, ...) @H5E_printf_stack(ptr noundef @.str, ptr noundef @__func__.H5T__set_order, i32 noundef 219, i64 noundef %27, i64 noundef %28, ptr noundef @.str.11)
  br label %30

30:                                               ; preds = %26
  store i8 1, ptr %6, align 1
  %31 = load i8, ptr %6, align 1
  %32 = trunc i8 %31 to i1
  %33 = zext i1 %32 to i8
  store i8 %33, ptr %6, align 1
  br label %34

34:                                               ; preds = %30
  br label %35

35:                                               ; preds = %34
  store i32 -1, ptr %5, align 4
  br label %226

36:                                               ; No predecessors!
  br label %37

37:                                               ; preds = %36
  br label %38

38:                                               ; preds = %37, %15, %2
  br label %39

39:                                               ; preds = %46, %38
  %40 = load ptr, ptr %3, align 8
  %41 = getelementptr inbounds %struct.H5T_t, ptr %40, i32 0, i32 1
  %42 = load ptr, ptr %41, align 8
  %43 = getelementptr inbounds %struct.H5T_shared_t, ptr %42, i32 0, i32 6
  %44 = load ptr, ptr %43, align 8
  %45 = icmp ne ptr %44, null
  br i1 %45, label %46, label %52

46:                                               ; preds = %39
  %47 = load ptr, ptr %3, align 8
  %48 = getelementptr inbounds %struct.H5T_t, ptr %47, i32 0, i32 1
  %49 = load ptr, ptr %48, align 8
  %50 = getelementptr inbounds %struct.H5T_shared_t, ptr %49, i32 0, i32 6
  %51 = load ptr, ptr %50, align 8
  store ptr %51, ptr %3, align 8
  br label %39

52:                                               ; preds = %39
  %53 = load i32, ptr %4, align 4
  %54 = icmp eq i32 %53, 4
  br i1 %54, label %55, label %91

55:                                               ; preds = %52
  %56 = load ptr, ptr %3, align 8
  %57 = getelementptr inbounds %struct.H5T_t, ptr %56, i32 0, i32 1
  %58 = load ptr, ptr %57, align 8
  %59 = getelementptr inbounds %struct.H5T_shared_t, ptr %58, i32 0, i32 2
  %60 = load i32, ptr %59, align 4
  %61 = icmp eq i32 7, %60
  br i1 %61, label %91, label %62

62:                                               ; preds = %55
  %63 = load ptr, ptr %3, align 8
  %64 = getelementptr inbounds %struct.H5T_t, ptr %63, i32 0, i32 1
  %65 = load ptr, ptr %64, align 8
  %66 = getelementptr inbounds %struct.H5T_shared_t, ptr %65, i32 0, i32 2
  %67 = load i32, ptr %66, align 4
  %68 = icmp eq i32 5, %67
  br i1 %68, label %91, label %69

69:                                               ; preds = %62
  %70 = load ptr, ptr %3, align 8
  %71 = getelementptr inbounds %struct.H5T_t, ptr %70, i32 0, i32 1
  %72 = load ptr, ptr %71, align 8
  %73 = getelementptr inbounds %struct.H5T_shared_t, ptr %72, i32 0, i32 2
  %74 = load i32, ptr %73, align 4
  %75 = icmp eq i32 3, %74
  br i1 %75, label %91, label %76

76:                                               ; preds = %69
  br label %77

77:                                               ; preds = %76
  br label %78

78:                                               ; preds = %77
  br label %79

79:                                               ; preds = %78
  %80 = load i64, ptr @H5E_DATATYPE_g, align 8
  %81 = load i64, ptr @H5E_BADVALUE_g, align 8
  %82 = call i32 (ptr, ptr, i32, i64, i64, ptr, ...) @H5E_printf_stack(ptr noundef @.str, ptr noundef @__func__.H5T__set_order, i32 noundef 228, i64 noundef %80, i64 noundef %81, ptr noundef @.str.12)
  br label %83

83:                                               ; preds = %79
  store i8 1, ptr %6, align 1
  %84 = load i8, ptr %6, align 1
  %85 = trunc i8 %84 to i1
  %86 = zext i1 %85 to i8
  store i8 %86, ptr %6, align 1
  br label %87

87:                                               ; preds = %83
  br label %88

88:                                               ; preds = %87
  store i32 -1, ptr %5, align 4
  br label %226

89:                                               ; No predecessors!
  br label %90

90:                                               ; preds = %89
  br label %91

91:                                               ; preds = %90, %69, %62, %55, %52
  %92 = load ptr, ptr %3, align 8
  %93 = getelementptr inbounds %struct.H5T_t, ptr %92, i32 0, i32 1
  %94 = load ptr, ptr %93, align 8
  %95 = getelementptr inbounds %struct.H5T_shared_t, ptr %94, i32 0, i32 2
  %96 = load i32, ptr %95, align 4
  %97 = icmp eq i32 %96, 6
  br i1 %97, label %140, label %98

98:                                               ; preds = %91
  %99 = load ptr, ptr %3, align 8
  %100 = getelementptr inbounds %struct.H5T_t, ptr %99, i32 0, i32 1
  %101 = load ptr, ptr %100, align 8
  %102 = getelementptr inbounds %struct.H5T_shared_t, ptr %101, i32 0, i32 2
  %103 = load i32, ptr %102, align 4
  %104 = icmp eq i32 %103, 8
  br i1 %104, label %140, label %105

105:                                              ; preds = %98
  %106 = load ptr, ptr %3, align 8
  %107 = getelementptr inbounds %struct.H5T_t, ptr %106, i32 0, i32 1
  %108 = load ptr, ptr %107, align 8
  %109 = getelementptr inbounds %struct.H5T_shared_t, ptr %108, i32 0, i32 2
  %110 = load i32, ptr %109, align 4
  %111 = icmp eq i32 %110, 9
  br i1 %111, label %140, label %112

112:                                              ; preds = %105
  %113 = load ptr, ptr %3, align 8
  %114 = getelementptr inbounds %struct.H5T_t, ptr %113, i32 0, i32 1
  %115 = load ptr, ptr %114, align 8
  %116 = getelementptr inbounds %struct.H5T_shared_t, ptr %115, i32 0, i32 2
  %117 = load i32, ptr %116, align 4
  %118 = icmp eq i32 %117, 10
  br i1 %118, label %140, label %119

119:                                              ; preds = %112
  %120 = load ptr, ptr %3, align 8
  %121 = getelementptr inbounds %struct.H5T_t, ptr %120, i32 0, i32 1
  %122 = load ptr, ptr %121, align 8
  %123 = getelementptr inbounds %struct.H5T_shared_t, ptr %122, i32 0, i32 2
  %124 = load i32, ptr %123, align 4
  %125 = icmp eq i32 %124, 7
  br i1 %125, label %140, label %126

126:                                              ; preds = %119
  %127 = load ptr, ptr %3, align 8
  %128 = getelementptr inbounds %struct.H5T_t, ptr %127, i32 0, i32 1
  %129 = load ptr, ptr %128, align 8
  %130 = getelementptr inbounds %struct.H5T_shared_t, ptr %129, i32 0, i32 2
  %131 = load i32, ptr %130, align 4
  %132 = icmp eq i32 %131, 5
  br i1 %132, label %140, label %133

133:                                              ; preds = %126
  %134 = load i32, ptr %4, align 4
  %135 = load ptr, ptr %3, align 8
  %136 = getelementptr inbounds %struct.H5T_t, ptr %135, i32 0, i32 1
  %137 = load ptr, ptr %136, align 8
  %138 = getelementptr inbounds %struct.H5T_shared_t, ptr %137, i32 0, i32 8
  %139 = getelementptr inbounds %struct.H5T_atomic_t, ptr %138, i32 0, i32 0
  store i32 %134, ptr %139, align 8
  br label %225

140:                                              ; preds = %126, %119, %112, %105, %98, %91
  %141 = load ptr, ptr %3, align 8
  %142 = getelementptr inbounds %struct.H5T_t, ptr %141, i32 0, i32 1
  %143 = load ptr, ptr %142, align 8
  %144 = getelementptr inbounds %struct.H5T_shared_t, ptr %143, i32 0, i32 2
  %145 = load i32, ptr %144, align 4
  %146 = icmp eq i32 6, %145
  br i1 %146, label %147, label %224

147:                                              ; preds = %140
  %148 = load ptr, ptr %3, align 8
  %149 = call i32 @H5T_get_nmembers(ptr noundef %148)
  store i32 %149, ptr %7, align 4
  %150 = icmp slt i32 %149, 0
  br i1 %150, label %151, label %166

151:                                              ; preds = %147
  br label %152

152:                                              ; preds = %151
  br label %153

153:                                              ; preds = %152
  br label %154

154:                                              ; preds = %153
  %155 = load i64, ptr @H5E_DATATYPE_g, align 8
  %156 = load i64, ptr @H5E_CANTGET_g, align 8
  %157 = call i32 (ptr, ptr, i32, i64, i64, ptr, ...) @H5E_printf_stack(ptr noundef @.str, ptr noundef @__func__.H5T__set_order, i32 noundef 242, i64 noundef %155, i64 noundef %156, ptr noundef @.str.5)
  br label %158

158:                                              ; preds = %154
  store i8 1, ptr %6, align 1
  %159 = load i8, ptr %6, align 1
  %160 = trunc i8 %159 to i1
  %161 = zext i1 %160 to i8
  store i8 %161, ptr %6, align 1
  br label %162

162:                                              ; preds = %158
  br label %163

163:                                              ; preds = %162
  store i32 -1, ptr %5, align 4
  br label %226

164:                                              ; No predecessors!
  br label %165

165:                                              ; preds = %164
  br label %166

166:                                              ; preds = %165, %147
  %167 = load i32, ptr %7, align 4
  %168 = icmp eq i32 %167, 0
  br i1 %168, label %169, label %184

169:                                              ; preds = %166
  br label %170

170:                                              ; preds = %169
  br label %171

171:                                              ; preds = %170
  br label %172

172:                                              ; preds = %171
  %173 = load i64, ptr @H5E_DATATYPE_g, align 8
  %174 = load i64, ptr @H5E_UNINITIALIZED_g, align 8
  %175 = call i32 (ptr, ptr, i32, i64, i64, ptr, ...) @H5E_printf_stack(ptr noundef @.str, ptr noundef @__func__.H5T__set_order, i32 noundef 246, i64 noundef %173, i64 noundef %174, ptr noundef @.str.13)
  br label %176

176:                                              ; preds = %172
  store i8 1, ptr %6, align 1
  %177 = load i8, ptr %6, align 1
  %178 = trunc i8 %177 to i1
  %179 = zext i1 %178 to i8
  store i8 %179, ptr %6, align 1
  br label %180

180:                                              ; preds = %176
  br label %181

181:                                              ; preds = %180
  store i32 -1, ptr %5, align 4
  br label %226

182:                                              ; No predecessors!
  br label %183

183:                                              ; preds = %182
  br label %184

184:                                              ; preds = %183, %166
  store i32 0, ptr %8, align 4
  br label %185

185:                                              ; preds = %220, %184
  %186 = load i32, ptr %8, align 4
  %187 = load i32, ptr %7, align 4
  %188 = icmp slt i32 %186, %187
  br i1 %188, label %189, label %223

189:                                              ; preds = %185
  %190 = load ptr, ptr %3, align 8
  %191 = getelementptr inbounds %struct.H5T_t, ptr %190, i32 0, i32 1
  %192 = load ptr, ptr %191, align 8
  %193 = getelementptr inbounds %struct.H5T_shared_t, ptr %192, i32 0, i32 8
  %194 = getelementptr inbounds %struct.H5T_compnd_t, ptr %193, i32 0, i32 4
  %195 = load ptr, ptr %194, align 8
  %196 = load i32, ptr %8, align 4
  %197 = sext i32 %196 to i64
  %198 = getelementptr inbounds %struct.H5T_cmemb_t, ptr %195, i64 %197
  %199 = getelementptr inbounds %struct.H5T_cmemb_t, ptr %198, i32 0, i32 3
  %200 = load ptr, ptr %199, align 8
  %201 = load i32, ptr %4, align 4
  %202 = call i32 @H5T__set_order(ptr noundef %200, i32 noundef %201)
  %203 = icmp slt i32 %202, 0
  br i1 %203, label %204, label %219

204:                                              ; preds = %189
  br label %205

205:                                              ; preds = %204
  br label %206

206:                                              ; preds = %205
  br label %207

207:                                              ; preds = %206
  %208 = load i64, ptr @H5E_DATATYPE_g, align 8
  %209 = load i64, ptr @H5E_CANTSET_g, align 8
  %210 = call i32 (ptr, ptr, i32, i64, i64, ptr, ...) @H5E_printf_stack(ptr noundef @.str, ptr noundef @__func__.H5T__set_order, i32 noundef 251, i64 noundef %208, i64 noundef %209, ptr noundef @.str.14)
  br label %211

211:                                              ; preds = %207
  store i8 1, ptr %6, align 1
  %212 = load i8, ptr %6, align 1
  %213 = trunc i8 %212 to i1
  %214 = zext i1 %213 to i8
  store i8 %214, ptr %6, align 1
  br label %215

215:                                              ; preds = %211
  br label %216

216:                                              ; preds = %215
  store i32 -1, ptr %5, align 4
  br label %226

217:                                              ; No predecessors!
  br label %218

218:                                              ; preds = %217
  br label %219

219:                                              ; preds = %218, %189
  br label %220

220:                                              ; preds = %219
  %221 = load i32, ptr %8, align 4
  %222 = add nsw i32 %221, 1
  store i32 %222, ptr %8, align 4
  br label %185

223:                                              ; preds = %185
  br label %224

224:                                              ; preds = %223, %140
  br label %225

225:                                              ; preds = %224, %133
  br label %226

226:                                              ; preds = %225, %216, %181, %163, %88, %35
  %227 = load i32, ptr %5, align 4
  ret i32 %227
}