; Function Attrs: nounwind uwtable
define internal fastcc range(i32 -1, 1) i32 @H5T__set_order(ptr noundef %0, i32 noundef %1) unnamed_addr #0 {
  %3 = getelementptr inbounds i8, ptr %0, i64 40
  %4 = load ptr, ptr %3, align 8
  %5 = getelementptr inbounds i8, ptr %4, i64 12
  %6 = load i32, ptr %5, align 4
  %7 = icmp eq i32 %6, 8
  br i1 %7, label %8, label %.preheader

.preheader:                                       ; preds = %8, %2
  br label %15

8:                                                ; preds = %2
  %9 = getelementptr inbounds i8, ptr %4, i64 52
  %10 = load i32, ptr %9, align 4
  %.not = icmp eq i32 %10, 0
  br i1 %.not, label %.preheader, label %11

11:                                               ; preds = %8
  %12 = load i64, ptr @H5E_DATATYPE_g, align 8
  %13 = load i64, ptr @H5E_CANTSET_g, align 8
  %14 = tail call i32 (ptr, ptr, i32, i64, i64, ptr, ...) @H5E_printf_stack(ptr noundef nonnull @.str, ptr noundef nonnull @__func__.H5T__set_order, i32 noundef 219, i64 noundef %12, i64 noundef %13, ptr noundef nonnull @.str.11) #2
  br label %.loopexit

15:                                               ; preds = %.preheader, %15
  %.030 = phi ptr [ %19, %15 ], [ %0, %.preheader ]
  %16 = getelementptr inbounds i8, ptr %.030, i64 40
  %17 = load ptr, ptr %16, align 8
  %18 = getelementptr inbounds i8, ptr %17, i64 32
  %19 = load ptr, ptr %18, align 8
  %.not36 = icmp eq ptr %19, null
  br i1 %.not36, label %20, label %15

20:                                               ; preds = %15
  %21 = getelementptr inbounds i8, ptr %.030, i64 40
  %22 = icmp eq i32 %1, 4
  %23 = getelementptr inbounds i8, ptr %17, i64 12
  %24 = load i32, ptr %23, align 4
  br i1 %22, label %25, label %._crit_edge

25:                                               ; preds = %20
  switch i32 %24, label %26 [
    i32 7, label %._crit_edge
    i32 5, label %._crit_edge
    i32 3, label %._crit_edge
  ]

26:                                               ; preds = %25
  %27 = load i64, ptr @H5E_DATATYPE_g, align 8
  %28 = load i64, ptr @H5E_BADVALUE_g, align 8
  %29 = tail call i32 (ptr, ptr, i32, i64, i64, ptr, ...) @H5E_printf_stack(ptr noundef nonnull @.str, ptr noundef nonnull @__func__.H5T__set_order, i32 noundef 228, i64 noundef %27, i64 noundef %28, ptr noundef nonnull @.str.12) #2
  br label %.loopexit

._crit_edge:                                      ; preds = %20, %25, %25, %25
  %.off = add i32 %24, -5
  %switch = icmp ult i32 %.off, 6
  br i1 %switch, label %32, label %30

30:                                               ; preds = %._crit_edge
  %31 = getelementptr inbounds i8, ptr %17, i64 48
  store i32 %1, ptr %31, align 8
  br label %.loopexit

32:                                               ; preds = %._crit_edge
  %33 = icmp eq i32 %24, 6
  br i1 %33, label %34, label %.loopexit

34:                                               ; preds = %32
  %35 = tail call i32 @H5T_get_nmembers(ptr noundef nonnull %.030) #2
  %36 = icmp slt i32 %35, 0
  br i1 %36, label %37, label %41

37:                                               ; preds = %34
  %38 = load i64, ptr @H5E_DATATYPE_g, align 8
  %39 = load i64, ptr @H5E_CANTGET_g, align 8
  %40 = tail call i32 (ptr, ptr, i32, i64, i64, ptr, ...) @H5E_printf_stack(ptr noundef nonnull @.str, ptr noundef nonnull @__func__.H5T__set_order, i32 noundef 242, i64 noundef %38, i64 noundef %39, ptr noundef nonnull @.str.5) #2
  br label %.loopexit

41:                                               ; preds = %34
  %42 = icmp eq i32 %35, 0
  br i1 %42, label %43, label %.lr.ph.preheader

.lr.ph.preheader:                                 ; preds = %41
  %wide.trip.count = zext nneg i32 %35 to i64
  br label %.lr.ph

43:                                               ; preds = %41
  %44 = load i64, ptr @H5E_DATATYPE_g, align 8
  %45 = load i64, ptr @H5E_UNINITIALIZED_g, align 8
  %46 = tail call i32 (ptr, ptr, i32, i64, i64, ptr, ...) @H5E_printf_stack(ptr noundef nonnull @.str, ptr noundef nonnull @__func__.H5T__set_order, i32 noundef 246, i64 noundef %44, i64 noundef %45, ptr noundef nonnull @.str.13) #2
  br label %.loopexit

47:                                               ; preds = %.lr.ph
  %indvars.iv.next = add nuw nsw i64 %indvars.iv, 1
  %exitcond.not = icmp eq i64 %indvars.iv.next, %wide.trip.count
  br i1 %exitcond.not, label %.loopexit, label %.lr.ph

.lr.ph:                                           ; preds = %.lr.ph.preheader, %47
  %indvars.iv = phi i64 [ 0, %.lr.ph.preheader ], [ %indvars.iv.next, %47 ]
  %48 = load ptr, ptr %21, align 8
  %49 = getelementptr inbounds i8, ptr %48, i64 64
  %50 = load ptr, ptr %49, align 8
  %51 = getelementptr inbounds %struct.H5T_cmemb_t, ptr %50, i64 %indvars.iv, i32 3
  %52 = load ptr, ptr %51, align 8
  %53 = tail call fastcc i32 @H5T__set_order(ptr noundef %52, i32 noundef %1)
  %54 = icmp slt i32 %53, 0
  br i1 %54, label %55, label %47

55:                                               ; preds = %.lr.ph
  %56 = load i64, ptr @H5E_DATATYPE_g, align 8
  %57 = load i64, ptr @H5E_CANTSET_g, align 8
  %58 = tail call i32 (ptr, ptr, i32, i64, i64, ptr, ...) @H5E_printf_stack(ptr noundef nonnull @.str, ptr noundef nonnull @__func__.H5T__set_order, i32 noundef 251, i64 noundef %56, i64 noundef %57, ptr noundef nonnull @.str.14) #2
  br label %.loopexit

.loopexit:                                        ; preds = %47, %30, %32, %55, %43, %37, %26, %11
  %.031 = phi i32 [ -1, %11 ], [ -1, %37 ], [ -1, %43 ], [ -1, %55 ], [ 0, %32 ], [ 0, %30 ], [ -1, %26 ], [ 0, %47 ]
  ret i32 %.031
}